target datalayout = "e-m:e-p270:32:32-p271:32:32-p272:64:64-i64:64-i128:128-f80:128-n8:16:32:64-S128"
target triple = "x86_64-pc-linux-gnu"

%struct.PaPulseAudio_HostApiRepresentation = type { %struct.PaUtilHostApiRepresentation, %struct.PaUtilStreamInterface, %struct.PaUtilStreamInterface, ptr, i32, [1024 x %struct.PaDeviceInfo], [1024 x ptr], %struct.pa_sample_spec, ptr, ptr, ptr, i32, ptr }
%struct.PaUtilHostApiRepresentation = type { %struct.PaUtilPrivatePaFrontHostApiInfo, %struct.PaHostApiInfo, ptr, ptr, ptr, ptr }
%struct.PaUtilPrivatePaFrontHostApiInfo = type { i64 }
%struct.PaHostApiInfo = type { i32, i32, ptr, i32, i32, i32 }
%struct.PaUtilStreamInterface = type { ptr, ptr, ptr, ptr, ptr, ptr, ptr, ptr, ptr, ptr, ptr, ptr }
%struct.PaDeviceInfo = type { i32, ptr, i32, i32, i32, double, double, double, double, double }
%struct.pa_sample_spec = type { i32, i32, i8 }

; Function Attrs: nounwind uwtable
define void @PaPulseAudio_UnLock(ptr noundef %0) #0 {
  %2 = alloca ptr, align 8
  store ptr %0, ptr %2, align 8, !tbaa !39
  %3 = load ptr, ptr %2, align 8, !tbaa !39
  %4 = call i32 @pa_threaded_mainloop_in_thread(ptr noundef %3)
  %5 = icmp ne i32 %4, 0
  br i1 %5, label %8, label %6

6:                                                ; preds = %1
  %7 = load ptr, ptr %2, align 8, !tbaa !39
  call void @pa_threaded_mainloop_unlock(ptr noundef %7)
  br label %9

8:                                                ; preds = %1
  br label %9

9:                                                ; preds = %8, %6
  ret void
}

; Function Attrs: nounwind uwtable
define void @PaPulseAudio_Lock(ptr noundef %0) #0 {
  %2 = alloca ptr, align 8
  store ptr %0, ptr %2, align 8, !tbaa !39
  %3 = load ptr, ptr %2, align 8, !tbaa !39
  %4 = call i32 @pa_threaded_mainloop_in_thread(ptr noundef %3)
  %5 = icmp ne i32 %4, 0
  br i1 %5, label %8, label %6

6:                                                ; preds = %1
  %7 = load ptr, ptr %2, align 8, !tbaa !39
  call void @pa_threaded_mainloop_lock(ptr noundef %7)
  br label %9

8:                                                ; preds = %1
  br label %9

9:                                                ; preds = %8, %6
  ret void
}

; Function Attrs: nounwind uwtable
define void @PaPulseAudio_ReleaseOperation(ptr noundef %0, ptr noundef %1) #0 {
  %3 = alloca ptr, align 8
  %4 = alloca ptr, align 8
  %5 = alloca i32, align 4
  %6 = alloca ptr, align 8
  %7 = alloca i32, align 4
  store ptr %0, ptr %3, align 8, !tbaa !19
  store ptr %1, ptr %4, align 8, !tbaa !20
  call void @llvm.lifetime.start.p0(i64 4, ptr %5) #6
  store i32 1000, ptr %5, align 4, !tbaa !10
  call void @llvm.lifetime.start.p0(i64 8, ptr %6) #6
  %8 = load ptr, ptr %4, align 8, !tbaa !20
  %9 = load ptr, ptr %8, align 8, !tbaa !22
  store ptr %9, ptr %6, align 8, !tbaa !22
  call void @llvm.lifetime.start.p0(i64 4, ptr %7) #6
  store i32 0, ptr %7, align 4, !tbaa !10
  br label %10

10:                                               ; preds = %29, %2
  %11 = load i32, ptr %5, align 4, !tbaa !10
  %12 = icmp ugt i32 %11, 0
  br i1 %12, label %13, label %35

13:                                               ; preds = %10
  %14 = load ptr, ptr %3, align 8, !tbaa !19
  %15 = getelementptr inbounds nuw %struct.PaPulseAudio_HostApiRepresentation, ptr %14, i32 0, i32 8
  %16 = load ptr, ptr %15, align 8, !tbaa !24
  call void @PaPulseAudio_Lock(ptr noundef %16)
  %17 = load ptr, ptr %6, align 8, !tbaa !22
  %18 = call i32 @pa_operation_get_state(ptr noundef %17)
  store i32 %18, ptr %7, align 4, !tbaa !10
  %19 = load i32, ptr %7, align 4, !tbaa !10
  %20 = icmp eq i32 %19, 0
  br i1 %20, label %21, label %25

21:                                               ; preds = %13
  %22 = load ptr, ptr %3, align 8, !tbaa !19
  %23 = getelementptr inbounds nuw %struct.PaPulseAudio_HostApiRepresentation, ptr %22, i32 0, i32 8
  %24 = load ptr, ptr %23, align 8, !tbaa !24
  call void @pa_threaded_mainloop_wait(ptr noundef %24)
  br label %29

25:                                               ; preds = %13
  %26 = load ptr, ptr %3, align 8, !tbaa !19
  %27 = getelementptr inbounds nuw %struct.PaPulseAudio_HostApiRepresentation, ptr %26, i32 0, i32 8
  %28 = load ptr, ptr %27, align 8, !tbaa !24
  call void @PaPulseAudio_UnLock(ptr noundef %28)
  br label %35

29:                                               ; preds = %21
  %30 = load ptr, ptr %3, align 8, !tbaa !19
  %31 = getelementptr inbounds nuw %struct.PaPulseAudio_HostApiRepresentation, ptr %30, i32 0, i32 8
  %32 = load ptr, ptr %31, align 8, !tbaa !24
  call void @PaPulseAudio_UnLock(ptr noundef %32)
  %33 = load i32, ptr %5, align 4, !tbaa !10
  %34 = add i32 %33, -1
  store i32 %34, ptr %5, align 4, !tbaa !10
  br label %10, !llvm.loop !37

35:                                               ; preds = %25, %10
  %36 = load i32, ptr %7, align 4, !tbaa !10
  %37 = icmp eq i32 %36, 0
  br i1 %37, label %38, label %39

38:                                               ; preds = %35
  br label %39

39:                                               ; preds = %38, %35
  %40 = load ptr, ptr %3, align 8, !tbaa !19
  %41 = getelementptr inbounds nuw %struct.PaPulseAudio_HostApiRepresentation, ptr %40, i32 0, i32 8
  %42 = load ptr, ptr %41, align 8, !tbaa !24
  call void @PaPulseAudio_Lock(ptr noundef %42)
  %43 = load ptr, ptr %6, align 8, !tbaa !22
  call void @pa_operation_unref(ptr noundef %43)
  store ptr null, ptr %4, align 8, !tbaa !20
  %44 = load ptr, ptr %3, align 8, !tbaa !19
  %45 = getelementptr inbounds nuw %struct.PaPulseAudio_HostApiRepresentation, ptr %44, i32 0, i32 8
  %46 = load ptr, ptr %45, align 8, !tbaa !24
  call void @PaPulseAudio_UnLock(ptr noundef %46)
  call void @llvm.lifetime.end.p0(i64 4, ptr %7) #6
  call void @llvm.lifetime.end.p0(i64 8, ptr %6) #6
  call void @llvm.lifetime.end.p0(i64 4, ptr %5) #6
  ret void
}