; Function Attrs: nounwind uwtable
define void @PaPulseAudio_ReleaseOperation(ptr noundef readonly captures(none) %0, ptr noundef readonly captures(none) %1) local_unnamed_addr #0 {
  %3 = load ptr, ptr %1, align 8, !tbaa !14
  %4 = getelementptr inbounds nuw i8, ptr %0, i64 82216
  br label %5

5:                                                ; preds = %2, %PaPulseAudio_UnLock.exit
  %.01222 = phi i32 [ 1000, %2 ], [ %16, %PaPulseAudio_UnLock.exit ]
  %6 = load ptr, ptr %4, align 8, !tbaa !17
  %7 = tail call i32 @pa_threaded_mainloop_in_thread(ptr noundef %6) #5
  %.not.i = icmp eq i32 %7, 0
  br i1 %.not.i, label %8, label %PaPulseAudio_Lock.exit

8:                                                ; preds = %5
  tail call void @pa_threaded_mainloop_lock(ptr noundef %6) #5
  br label %PaPulseAudio_Lock.exit

PaPulseAudio_Lock.exit:                           ; preds = %5, %8
  %9 = tail call i32 @pa_operation_get_state(ptr noundef %3) #5
  %10 = icmp eq i32 %9, 0
  %11 = load ptr, ptr %4, align 8, !tbaa !17
  br i1 %10, label %12, label %17

12:                                               ; preds = %PaPulseAudio_Lock.exit
  tail call void @pa_threaded_mainloop_wait(ptr noundef %11) #5
  %13 = load ptr, ptr %4, align 8, !tbaa !17
  %14 = tail call i32 @pa_threaded_mainloop_in_thread(ptr noundef %13) #5
  %.not.i15 = icmp eq i32 %14, 0
  br i1 %.not.i15, label %15, label %PaPulseAudio_UnLock.exit

15:                                               ; preds = %12
  tail call void @pa_threaded_mainloop_unlock(ptr noundef %13) #5
  br label %PaPulseAudio_UnLock.exit

PaPulseAudio_UnLock.exit:                         ; preds = %12, %15
  %16 = add nsw i32 %.01222, -1
  %.not = icmp eq i32 %16, 0
  br i1 %.not, label %PaPulseAudio_UnLock.exit17, label %5, !llvm.loop !30

17:                                               ; preds = %PaPulseAudio_Lock.exit
  %18 = tail call i32 @pa_threaded_mainloop_in_thread(ptr noundef %11) #5
  %.not.i16 = icmp eq i32 %18, 0
  br i1 %.not.i16, label %19, label %PaPulseAudio_UnLock.exit17

19:                                               ; preds = %17
  tail call void @pa_threaded_mainloop_unlock(ptr noundef %11) #5
  br label %PaPulseAudio_UnLock.exit17

PaPulseAudio_UnLock.exit17:                       ; preds = %PaPulseAudio_UnLock.exit, %19, %17
  %20 = load ptr, ptr %4, align 8, !tbaa !17
  %21 = tail call i32 @pa_threaded_mainloop_in_thread(ptr noundef %20) #5
  %.not.i18 = icmp eq i32 %21, 0
  br i1 %.not.i18, label %22, label %PaPulseAudio_Lock.exit19

22:                                               ; preds = %PaPulseAudio_UnLock.exit17
  tail call void @pa_threaded_mainloop_lock(ptr noundef %20) #5
  br label %PaPulseAudio_Lock.exit19

PaPulseAudio_Lock.exit19:                         ; preds = %PaPulseAudio_UnLock.exit17, %22
  tail call void @pa_operation_unref(ptr noundef %3) #5
  %23 = load ptr, ptr %4, align 8, !tbaa !17
  %24 = tail call i32 @pa_threaded_mainloop_in_thread(ptr noundef %23) #5
  %.not.i20 = icmp eq i32 %24, 0
  br i1 %.not.i20, label %25, label %PaPulseAudio_UnLock.exit21

25:                                               ; preds = %PaPulseAudio_Lock.exit19
  tail call void @pa_threaded_mainloop_unlock(ptr noundef %23) #5
  br label %PaPulseAudio_UnLock.exit21

PaPulseAudio_UnLock.exit21:                       ; preds = %PaPulseAudio_Lock.exit19, %25
  ret void
}